Certificate:
    Data:
        Version: 3 (0x2)
        Serial Number: 19 (0x13)
    Signature Algorithm: sha1WithRSAEncryption
        Issuer: C=CN, ST=\xE5\xAE\x89\xE5\xBE\xBD\xE7\x9C\x81, L=\xE5\x90\x88\xE8\x82\xA5\xE5\xB8\x82, O=\xE5\x90\x88\xE8\x82\xA5\xE8\x8B\xB1\xE5\xA1\x94\xE4\xBF\xA1\xE6\x81\xAF\xE6\x8A\x80\xE6\x9C\xAF\xE6\x9C\x89\xE9\x99\x90\xE5\x85\xAC\xE5\x8F\xB8, CN=\xE7\x8E\x8B\xE7\xBB\xB4\xE6\x9E\x97
        Validity
            Not Before: Oct 12 06:11:17 2013 GMT
            Not After : Oct 12 06:11:17 2014 GMT
        Subject: C=CN, ST=\xE5\xAE\x89\xE5\xBE\xBD\xE7\x9C\x81, O=\xE5\x90\x88\xE8\x82\xA5\xE8\x8B\xB1\xE5\xA1\x94\xE4\xBF\xA1\xE6\x81\xAF\xE6\x8A\x80\xE6\x9C\xAF\xE6\x9C\x89\xE9\x99\x90\xE5\x85\xAC\xE5\x8F\xB8, CN=\xE6\x93\x8D\xE4\xBD\x9C\xE5\x91\x98RA
        Subject Public Key Info:
            Public Key Algorithm: rsaEncryption
                Public-Key: (2048 bit)
                Modulus:
                    00:9d:69:54:ab:50:e6:03:ac:2a:42:e9:c2:6d:fc:
                    f8:28:10:0f:35:2d:d8:21:39:98:4c:72:e8:ff:3a:
                    96:99:43:b3:6e:db:8d:28:8f:20:49:d0:00:75:fc:
                    90:c9:bb:b4:5d:b4:0a:7c:d4:71:b1:91:31:2b:86:
                    4b:ac:e1:8e:28:d0:e4:e7:8a:ea:59:8a:27:7b:05:
                    be:6d:68:b0:f0:f2:d9:29:f3:06:1d:67:83:20:43:
                    3f:f6:b0:79:ce:f4:80:1d:b9:88:e8:c3:c3:bc:89:
                    89:88:b7:b1:ce:d9:ef:f7:f1:59:e9:58:c3:8a:e8:
                    33:1e:61:e5:4e:48:ef:46:d4:e9:83:2c:fe:e6:12:
                    55:84:9d:05:0d:c8:1b:69:61:d0:24:9d:71:6c:d8:
                    23:d7:1c:db:4b:2a:b7:cc:ee:92:ff:98:a8:7a:b1:
                    6b:58:e9:1d:51:50:aa:90:74:c2:0d:b5:13:75:32:
                    bf:e5:b6:7a:71:d2:9e:8e:48:ee:e0:29:5d:7d:ff:
                    96:d9:49:4b:37:0f:66:8f:44:7b:ea:50:c8:3e:9c:
                    7d:94:3b:d1:86:26:3b:2b:d9:f1:2b:e8:fa:1d:49:
                    25:d2:86:64:1b:e1:30:b9:84:5e:48:a8:2e:eb:1f:
                    55:41:d2:1b:d3:30:92:ad:0a:25:13:2d:3d:4d:02:
                    e4:4d
                Exponent: 65537 (0x10001)
        X509v3 extensions:
            X509v3 Basic Constraints: 
                CA:FALSE
            Netscape Comment: 
                OpenSSL Generated Certificate
            X509v3 Subject Key Identifier: 
                3D:16:61:E9:9B:30:71:F8:EA:0D:AB:DD:DF:46:5D:A0:28:7C:4E:B4
            X509v3 Authority Key Identifier: 
                keyid:44:C6:13:ED:A9:1D:78:24:47:C9:C9:70:3F:F5:A6:FF:FB:36:2A:22

    Signature Algorithm: sha1WithRSAEncryption
         d4:50:9e:25:f3:63:e6:7c:72:23:2a:28:a7:79:d9:ef:16:37:
         94:6e:79:06:eb:ac:a1:a4:32:32:7a:50:14:08:72:5b:d2:b4:
         e3:b0:e4:1f:c3:48:52:25:dc:09:68:9c:60:e3:34:ae:10:b8:
         c4:77:ab:00:f5:9e:e6:5f:f5:66:dc:93:aa:c0:51:26:6b:d3:
         d5:7a:8f:0b:9a:68:cf:ea:be:74:fa:1e:ba:b3:ea:70:b6:5a:
         69:0d:65:e0:93:ba:3b:4b:e9:40:47:56:61:49:7e:cd:55:a7:
         20:0b:62:2c:b9:15:fc:7c:8f:dd:1e:59:e0:14:0b:a2:fe:a1:
         58:39:e2:67:34:1d:cf:fa:66:44:d5:8b:dd:5a:f1:15:2d:97:
         5f:22:83:17:55:ac:69:f6:c0:9e:07:97:1f:a8:7d:3e:c8:87:
         fb:dc:3c:43:3b:1c:5b:83:fb:7b:07:4d:c2:9e:a6:c1:bb:41:
         f8:ba:53:d4:50:f1:a1:bc:6f:17:c4:7d:4f:f3:0b:0a:4f:44:
         98:52:18:b2:01:8f:99:b8:e0:57:a8:16:e0:22:44:24:b4:aa:
         54:ab:09:9f:e7:7d:1c:18:bc:1e:4c:88:52:07:9d:5b:89:e2:
         3b:e3:7b:65:5b:74:3e:cd:a2:71:b7:87:7f:9e:6a:ce:b5:2f:
         34:94:eb:f5
-----BEGIN CERTIFICATE-----
MIID1DCCArygAwIBAgIBEzANBgkqhkiG9w0BAQUFADB4MQswCQYDVQQGEwJDTjES
MBAGA1UECAwJ5a6J5b6955yBMRIwEAYDVQQHDAnlkIjogqXluIIxLTArBgNVBAoM
JOWQiOiCpeiLseWhlOS/oeaBr+aKgOacr+aciemZkOWFrOWPuDESMBAGA1UEAwwJ
546L57u05p6XMB4XDTEzMTAxMjA2MTExN1oXDTE0MTAxMjA2MTExN1owZjELMAkG
A1UEBhMCQ04xEjAQBgNVBAgMCeWuieW+veecgTEtMCsGA1UECgwk5ZCI6IKl6Iux
5aGU5L+h5oGv5oqA5pyv5pyJ6ZmQ5YWs5Y+4MRQwEgYDVQQDDAvmk43kvZzlkZhS
QTCCASIwDQYJKoZIhvcNAQEBBQADggEPADCCAQoCggEBAJ1pVKtQ5gOsKkLpwm38
+CgQDzUt2CE5mExy6P86lplDs27bjSiPIEnQAHX8kMm7tF20CnzUcbGRMSuGS6zh
jijQ5OeK6lmKJ3sFvm1osPDy2SnzBh1ngyBDP/awec70gB25iOjDw7yJiYi3sc7Z
7/fxWelYw4roMx5h5U5I70bU6YMs/uYSVYSdBQ3IG2lh0CSdcWzYI9cc20sqt8zu
kv+YqHqxa1jpHVFQqpB0wg21E3Uyv+W2enHSno5I7uApXX3/ltlJSzcPZo9Ee+pQ
yD6cfZQ70YYmOyvZ8Svo+h1JJdKGZBvhMLmEXkioLusfVUHSG9Mwkq0KJRMtPU0C
5E0CAwEAAaN7MHkwCQYDVR0TBAIwADAsBglghkgBhvhCAQ0EHxYdT3BlblNTTCBH
ZW5lcmF0ZWQgQ2VydGlmaWNhdGUwHQYDVR0OBBYEFD0WYembMHH46g2r3d9GXaAo
fE60MB8GA1UdIwQYMBaAFETGE+2pHXgkR8nJcD/1pv/7NioiMA0GCSqGSIb3DQEB
BQUAA4IBAQDUUJ4l82PmfHIjKiinednvFjeUbnkG66yhpDIyelAUCHJb0rTjsOQf
w0hSJdwJaJxg4zSuELjEd6sA9Z7mX/Vm3JOqwFEma9PVeo8LmmjP6r50+h66s+pw
tlppDWXgk7o7S+lAR1ZhSX7NVacgC2IsuRX8fI/dHlngFAui/qFYOeJnNB3P+mZE
1YvdWvEVLZdfIoMXVaxp9sCeB5cfqH0+yIf73DxDOxxbg/t7B03CnqbBu0H4ulPU
UPGhvG8XxH1P8wsKT0SYUhiyAY+ZuOBXqBbgIkQktKpUqwmf530cGLweTIhSB51b
ieI743tlW3Q+zaJxt4d/nmrOtS80lOv1
-----END CERTIFICATE-----
