Certificate:
    Data:
        Version: 3 (0x2)
        Serial Number: 18 (0x12)
    Signature Algorithm: sha1WithRSAEncryption
        Issuer: C=CN, ST=\xE5\xAE\x89\xE5\xBE\xBD\xE7\x9C\x81, L=\xE5\x90\x88\xE8\x82\xA5\xE5\xB8\x82, O=\xE5\x90\x88\xE8\x82\xA5\xE8\x8B\xB1\xE5\xA1\x94\xE4\xBF\xA1\xE6\x81\xAF\xE6\x8A\x80\xE6\x9C\xAF\xE6\x9C\x89\xE9\x99\x90\xE5\x85\xAC\xE5\x8F\xB8, CN=\xE7\x8E\x8B\xE7\xBB\xB4\xE6\x9E\x97
        Validity
            Not Before: Oct 11 04:47:25 2013 GMT
            Not After : Oct 11 04:47:25 2014 GMT
        Subject: C=CN, ST=\xE5\xAE\x89\xE5\xBE\xBD\xE7\x9C\x81, O=\xE5\x90\x88\xE8\x82\xA5\xE8\x8B\xB1\xE5\xA1\x94\xE4\xBF\xA1\xE6\x81\xAF\xE6\x8A\x80\xE6\x9C\xAF\xE6\x9C\x89\xE9\x99\x90\xE5\x85\xAC\xE5\x8F\xB8, CN=\xE4\xB8\xAD\xE7\xBA\xA7\xE8\xAF\x81\xE4\xB9\xA6
        Subject Public Key Info:
            Public Key Algorithm: rsaEncryption
                Public-Key: (2048 bit)
                Modulus:
                    00:b3:4d:96:93:92:1f:15:37:01:09:81:3f:44:8d:
                    06:17:66:66:81:a0:71:17:3f:a5:30:4b:41:87:f8:
                    83:6c:2d:8e:53:69:8c:98:cd:15:9c:cd:46:f7:3a:
                    ac:fa:4d:ef:ba:6d:8b:6f:c5:ec:69:9f:a9:42:b6:
                    14:e3:e1:8f:18:87:b3:d3:c9:1c:cd:f3:74:46:db:
                    59:56:d8:bf:b9:7c:c5:0b:34:17:cb:b5:94:f0:e9:
                    9d:ef:d8:9f:68:2d:5e:bb:81:b9:9c:1e:63:bc:f9:
                    2c:e8:d2:aa:97:23:56:03:25:55:82:42:c6:73:ca:
                    13:0b:f7:a5:b3:48:c6:58:b8:e3:0a:e5:2d:28:70:
                    e0:6a:76:36:8f:5d:6d:28:e3:92:57:38:be:12:63:
                    06:12:90:87:84:ef:bb:0d:b7:ae:36:75:c6:6a:47:
                    49:4b:2d:49:f7:33:bb:20:c3:a0:01:41:e8:66:51:
                    91:0e:51:23:82:8a:b6:d0:4f:1b:f7:a8:f2:84:44:
                    5a:b4:54:43:e7:d9:e9:6e:af:de:b1:c4:66:84:d5:
                    ff:9b:d5:fc:a2:71:72:6a:f8:9d:66:6b:7b:d7:84:
                    85:5e:e2:78:d6:38:ce:5d:c8:b3:c0:70:3f:0b:52:
                    94:bf:ef:7d:f6:76:c0:0b:50:dd:64:02:c2:43:a4:
                    f8:ab
                Exponent: 65537 (0x10001)
        X509v3 extensions:
            X509v3 Basic Constraints: 
                CA:FALSE
            Netscape Comment: 
                OpenSSL Generated Certificate
            X509v3 Subject Key Identifier: 
                F2:90:CF:80:97:E6:64:7B:46:7C:51:0E:57:F5:42:E1:06:24:1C:C7
            X509v3 Authority Key Identifier: 
                keyid:44:C6:13:ED:A9:1D:78:24:47:C9:C9:70:3F:F5:A6:FF:FB:36:2A:22

    Signature Algorithm: sha1WithRSAEncryption
         ef:51:e1:d4:6b:58:5b:82:93:7b:f8:1b:47:03:f9:78:a9:bc:
         7a:cc:f2:f5:e5:10:8f:43:a5:5a:3c:32:c9:16:da:c3:6c:99:
         8d:3a:83:26:0a:7e:3b:e7:4e:ab:66:4f:92:22:99:c9:11:5c:
         71:93:85:48:0d:a8:d2:37:ff:a6:f1:4e:78:02:f3:8c:5f:14:
         f4:0e:a1:67:8e:1e:fc:20:dd:cc:0d:5c:90:51:d6:53:4f:91:
         bd:f6:ce:cb:06:3d:8f:5b:b2:cd:45:77:d0:df:b6:66:f2:49:
         77:2b:50:ed:d6:df:20:a7:73:f0:75:ed:49:d2:83:c6:f7:9e:
         cb:1f:9e:1c:5d:f0:6a:d7:ff:8c:62:af:30:b6:cc:25:e6:42:
         2a:ee:45:ab:4c:49:09:cb:81:f9:be:78:2d:4a:d3:a8:ad:6b:
         f9:ad:de:4f:04:1e:8c:68:9f:1b:44:3f:2a:b0:15:69:f7:c6:
         69:10:29:a0:a7:e8:ef:c0:2d:0e:78:9d:de:a7:b0:92:75:18:
         64:06:6d:b8:af:f4:fb:0b:6d:65:fd:2a:b4:3c:a8:12:9f:96:
         f3:cc:1c:c1:22:66:4c:67:66:37:4f:c6:fb:ac:96:a9:a3:df:
         8f:4e:7e:56:23:10:46:74:e1:ec:1d:5e:a1:cd:52:20:20:1f:
         4c:db:74:df
-----BEGIN CERTIFICATE-----
MIID1TCCAr2gAwIBAgIBEjANBgkqhkiG9w0BAQUFADB4MQswCQYDVQQGEwJDTjES
MBAGA1UECAwJ5a6J5b6955yBMRIwEAYDVQQHDAnlkIjogqXluIIxLTArBgNVBAoM
JOWQiOiCpeiLseWhlOS/oeaBr+aKgOacr+aciemZkOWFrOWPuDESMBAGA1UEAwwJ
546L57u05p6XMB4XDTEzMTAxMTA0NDcyNVoXDTE0MTAxMTA0NDcyNVowZzELMAkG
A1UEBhMCQ04xEjAQBgNVBAgMCeWuieW+veecgTEtMCsGA1UECgwk5ZCI6IKl6Iux
5aGU5L+h5oGv5oqA5pyv5pyJ6ZmQ5YWs5Y+4MRUwEwYDVQQDDAzkuK3nuqfor4Hk
uaYwggEiMA0GCSqGSIb3DQEBAQUAA4IBDwAwggEKAoIBAQCzTZaTkh8VNwEJgT9E
jQYXZmaBoHEXP6UwS0GH+INsLY5TaYyYzRWczUb3Oqz6Te+6bYtvxexpn6lCthTj
4Y8Yh7PTyRzN83RG21lW2L+5fMULNBfLtZTw6Z3v2J9oLV67gbmcHmO8+Szo0qqX
I1YDJVWCQsZzyhML96WzSMZYuOMK5S0ocOBqdjaPXW0o45JXOL4SYwYSkIeE77sN
t642dcZqR0lLLUn3M7sgw6ABQehmUZEOUSOCirbQTxv3qPKERFq0VEPn2elur96x
xGaE1f+b1fyicXJq+J1ma3vXhIVe4njWOM5dyLPAcD8LUpS/7332dsALUN1kAsJD
pPirAgMBAAGjezB5MAkGA1UdEwQCMAAwLAYJYIZIAYb4QgENBB8WHU9wZW5TU0wg
R2VuZXJhdGVkIENlcnRpZmljYXRlMB0GA1UdDgQWBBTykM+Al+Zke0Z8UQ5X9ULh
BiQcxzAfBgNVHSMEGDAWgBRExhPtqR14JEfJyXA/9ab/+zYqIjANBgkqhkiG9w0B
AQUFAAOCAQEA71Hh1GtYW4KTe/gbRwP5eKm8eszy9eUQj0OlWjwyyRbaw2yZjTqD
Jgp+O+dOq2ZPkiKZyRFccZOFSA2o0jf/pvFOeALzjF8U9A6hZ44e/CDdzA1ckFHW
U0+RvfbOywY9j1uyzUV30N+2ZvJJdytQ7dbfIKdz8HXtSdKDxveeyx+eHF3watf/
jGKvMLbMJeZCKu5Fq0xJCcuB+b54LUrTqK1r+a3eTwQejGifG0Q/KrAVaffGaRAp
oKfo78AtDnid3qewknUYZAZtuK/0+wttZf0qtDyoEp+W88wcwSJmTGdmN0/G+6yW
qaPfj05+ViMQRnTh7B1eoc1SICAfTNt03w==
-----END CERTIFICATE-----
