Certificate:
    Data:
        Version: 3 (0x2)
        Serial Number: 4101 (0x1005)
    Signature Algorithm: sha1WithRSAEncryption
        Issuer: C=CN, ST=\xE5\xAE\x89\xE5\xBE\xBD\xE7\x9C\x81, L=\xE5\x90\x88\xE8\x82\xA5\xE5\xB8\x82, O=\xE5\x90\x88\xE8\x82\xA5\xE8\x8B\xB1\xE5\xA1\x94\xE4\xBF\xA1\xE6\x81\xAF\xE6\x8A\x80\xE6\x9C\xAF\xE6\x9C\x89\xE9\x99\x90\xE5\x85\xAC\xE5\x8F\xB8, CN=\xE7\x8E\x8B\xE7\xBB\xB4\xE6\x9E\x97
        Validity
            Not Before: Oct 15 02:28:44 2013 GMT
            Not After : Oct  4 02:28:44 2016 GMT
        Subject: C=CN, ST=Some-State, O=Inta Software Ltd., CN=Soap Client Cert
        Subject Public Key Info:
            Public Key Algorithm: rsaEncryption
                Public-Key: (1024 bit)
                Modulus:
                    00:ac:d6:4f:5d:ad:92:d8:ca:a4:c0:0a:bc:7f:f9:
                    e0:c0:b2:ad:39:67:df:fc:1c:e2:8a:a9:f4:87:ca:
                    eb:8e:4e:3f:71:ee:e9:40:3a:c9:e0:25:94:ee:5b:
                    a6:c0:2d:88:2d:46:bc:23:9b:d1:0b:8e:d5:ce:46:
                    05:53:d6:51:e4:4d:2c:62:c1:72:02:f1:1c:dc:eb:
                    be:a8:62:e3:af:12:84:d9:e9:58:16:f7:b4:02:5e:
                    4e:b8:4f:ad:07:60:7f:13:ea:79:51:38:2c:95:70:
                    80:bc:58:05:af:6f:c5:34:63:75:39:1e:35:da:e2:
                    a1:26:91:72:a1:a0:b8:e2:f7
                Exponent: 65537 (0x10001)
        X509v3 extensions:
            X509v3 Basic Constraints: 
                CA:FALSE
            Netscape Comment: 
                OpenSSL Generated Certificate
            X509v3 Subject Key Identifier: 
                35:43:3D:91:C9:74:22:88:87:3A:D5:BE:BF:66:D8:40:E7:DA:14:08
            X509v3 Authority Key Identifier: 
                keyid:44:C6:13:ED:A9:1D:78:24:47:C9:C9:70:3F:F5:A6:FF:FB:36:2A:22

    Signature Algorithm: sha1WithRSAEncryption
         df:96:ea:54:03:87:5a:a9:19:be:dd:25:18:34:7d:51:e6:45:
         d5:68:60:4b:85:fa:19:1b:d0:fb:9e:ca:af:f4:34:c9:95:5e:
         ee:f4:7a:bf:76:86:dc:c7:58:0d:35:f8:14:c1:59:05:47:88:
         82:0d:0c:48:77:2b:f8:d3:9a:a1:5c:3c:23:36:0f:cc:fe:4c:
         32:82:35:ea:86:a4:43:5a:06:19:37:57:c6:fd:e5:a6:bb:a6:
         fe:b8:fd:4a:85:c9:45:29:ed:1f:e4:e7:92:39:1f:1a:90:71:
         bb:1c:37:9c:70:74:d0:d8:52:1a:8b:29:aa:9c:31:64:13:5f:
         92:48:33:02:9a:6b:f1:68:4f:75:08:f6:af:63:33:cf:47:34:
         d9:f3:d7:33:07:fb:4b:4f:79:de:45:59:31:ab:7e:aa:4d:ed:
         0e:80:a0:db:e3:4b:fe:d1:23:7d:9a:35:0c:b1:cc:e0:0a:30:
         57:1e:18:07:7c:f0:7a:42:aa:d7:b8:81:bb:b3:d1:0d:e9:56:
         87:70:8c:72:bd:b1:90:a3:9f:2c:20:2f:0d:5e:cd:b1:8a:a3:
         a4:b1:8f:aa:ea:3f:66:bd:d5:a4:e6:6f:f0:9f:2d:ea:10:f2:
         22:09:94:f1:8c:36:b6:59:e8:ff:8d:1b:2c:5b:4a:07:be:24:
         50:be:65:ca
-----BEGIN CERTIFICATE-----
MIIDRTCCAi2gAwIBAgICEAUwDQYJKoZIhvcNAQEFBQAweDELMAkGA1UEBhMCQ04x
EjAQBgNVBAgMCeWuieW+veecgTESMBAGA1UEBwwJ5ZCI6IKl5biCMS0wKwYDVQQK
DCTlkIjogqXoi7HloZTkv6Hmga/mioDmnK/mnInpmZDlhazlj7gxEjAQBgNVBAMM
CeeOi+e7tOaelzAeFw0xMzEwMTUwMjI4NDRaFw0xNjEwMDQwMjI4NDRaMFoxCzAJ
BgNVBAYTAkNOMRMwEQYDVQQIDApTb21lLVN0YXRlMRswGQYDVQQKDBJJbnRhIFNv
ZnR3YXJlIEx0ZC4xGTAXBgNVBAMMEFNvYXAgQ2xpZW50IENlcnQwgZ8wDQYJKoZI
hvcNAQEBBQADgY0AMIGJAoGBAKzWT12tktjKpMAKvH/54MCyrTln3/wc4oqp9IfK
645OP3Hu6UA6yeAllO5bpsAtiC1GvCOb0QuO1c5GBVPWUeRNLGLBcgLxHNzrvqhi
468ShNnpWBb3tAJeTrhPrQdgfxPqeVE4LJVwgLxYBa9vxTRjdTkeNdrioSaRcqGg
uOL3AgMBAAGjezB5MAkGA1UdEwQCMAAwLAYJYIZIAYb4QgENBB8WHU9wZW5TU0wg
R2VuZXJhdGVkIENlcnRpZmljYXRlMB0GA1UdDgQWBBQ1Qz2RyXQiiIc61b6/ZthA
59oUCDAfBgNVHSMEGDAWgBRExhPtqR14JEfJyXA/9ab/+zYqIjANBgkqhkiG9w0B
AQUFAAOCAQEA35bqVAOHWqkZvt0lGDR9UeZF1WhgS4X6GRvQ+57Kr/Q0yZVe7vR6
v3aG3MdYDTX4FMFZBUeIgg0MSHcr+NOaoVw8IzYPzP5MMoI16oakQ1oGGTdXxv3l
prum/rj9SoXJRSntH+TnkjkfGpBxuxw3nHB00NhSGospqpwxZBNfkkgzAppr8WhP
dQj2r2Mzz0c02fPXMwf7S0953kVZMat+qk3tDoCg2+NL/tEjfZo1DLHM4AowVx4Y
B3zwekKq17iBu7PRDelWh3CMcr2xkKOfLCAvDV7NsYqjpLGPquo/Zr3VpOZv8J8t
6hDyIgmU8Yw2tlno/40bLFtKB74kUL5lyg==
-----END CERTIFICATE-----
