Certificate:
    Data:
        Version: 3 (0x2)
        Serial Number: 4100 (0x1004)
    Signature Algorithm: sha1WithRSAEncryption
        Issuer: C=CN, ST=\xE5\xAE\x89\xE5\xBE\xBD\xE7\x9C\x81, L=\xE5\x90\x88\xE8\x82\xA5\xE5\xB8\x82, O=\xE5\x90\x88\xE8\x82\xA5\xE8\x8B\xB1\xE5\xA1\x94\xE4\xBF\xA1\xE6\x81\xAF\xE6\x8A\x80\xE6\x9C\xAF\xE6\x9C\x89\xE9\x99\x90\xE5\x85\xAC\xE5\x8F\xB8, CN=\xE7\x8E\x8B\xE7\xBB\xB4\xE6\x9E\x97
        Validity
            Not Before: Oct 15 02:26:26 2013 GMT
            Not After : Oct  4 02:26:26 2016 GMT
        Subject: C=CN, ST=Anhui, O=Inta Software Ltd., CN=Soap Server Cert
        Subject Public Key Info:
            Public Key Algorithm: rsaEncryption
                Public-Key: (1024 bit)
                Modulus:
                    00:a8:a6:07:83:34:6c:f0:83:5d:71:28:5e:2a:c0:
                    aa:bb:3b:0e:36:84:89:34:b1:0d:85:0d:5a:e5:0a:
                    45:8b:19:e8:77:f1:aa:cd:07:98:14:fb:7e:ea:08:
                    04:7b:71:ca:91:f6:c2:dc:f8:5a:e5:3b:36:3b:f0:
                    b3:a5:6a:40:eb:e5:e8:2d:13:55:47:ad:b5:91:76:
                    cf:87:f9:5f:a5:9b:0b:c3:d3:92:b9:a5:43:52:91:
                    18:0f:d7:a0:18:45:9d:08:e1:d2:fa:1a:61:6c:c1:
                    97:b4:9b:a9:17:fe:ee:24:2d:93:e5:d6:49:0f:8a:
                    e2:f8:2c:19:73:ac:1d:5a:65
                Exponent: 65537 (0x10001)
        X509v3 extensions:
            X509v3 Basic Constraints: 
                CA:FALSE
            Netscape Comment: 
                OpenSSL Generated Certificate
            X509v3 Subject Key Identifier: 
                18:18:A7:70:46:40:EA:60:5A:34:36:B9:4A:E3:7A:9E:D5:68:9B:2D
            X509v3 Authority Key Identifier: 
                keyid:44:C6:13:ED:A9:1D:78:24:47:C9:C9:70:3F:F5:A6:FF:FB:36:2A:22

    Signature Algorithm: sha1WithRSAEncryption
         61:a0:95:4a:e9:85:57:f0:12:56:a4:1b:06:ac:c0:4e:9c:98:
         38:a8:7c:08:f7:68:fb:40:61:2f:18:e6:c3:4c:5c:09:fb:4e:
         84:f3:c2:9c:59:1b:2b:a9:97:bf:86:b6:7a:68:08:2a:a0:2f:
         c4:d6:4b:53:25:e6:b3:05:10:d3:96:3d:17:0e:27:0b:cc:ac:
         32:cf:b1:04:c4:eb:7e:2e:66:1d:ed:12:48:59:70:6e:a0:c8:
         1e:da:70:51:cb:04:20:25:f4:3c:7e:f7:97:e8:b3:5b:23:ad:
         8a:ff:09:3d:81:b5:3e:4a:31:d0:c5:13:b1:58:0b:d4:43:21:
         bf:c6:56:21:0f:1a:7a:b9:29:ff:82:43:ba:37:65:59:19:86:
         a4:d2:1d:3c:37:38:6b:3a:03:0c:38:76:ed:30:51:3d:57:fe:
         35:58:3a:87:10:67:4f:56:9b:cd:e6:a0:14:9d:d4:d2:57:7e:
         32:2d:78:36:5b:f3:9d:dc:16:ae:6a:09:b6:d2:30:47:c5:87:
         b9:c9:48:b6:ac:48:31:b9:cb:32:60:ed:8b:9d:f8:e8:d7:de:
         de:0c:83:66:ea:92:e1:3d:0d:28:c3:a7:b8:68:98:5d:64:7c:
         88:3c:62:44:f7:41:29:85:3f:50:4b:72:90:d7:9e:d6:c2:71:
         47:4f:3e:36
-----BEGIN CERTIFICATE-----
MIIDQDCCAiigAwIBAgICEAQwDQYJKoZIhvcNAQEFBQAweDELMAkGA1UEBhMCQ04x
EjAQBgNVBAgMCeWuieW+veecgTESMBAGA1UEBwwJ5ZCI6IKl5biCMS0wKwYDVQQK
DCTlkIjogqXoi7HloZTkv6Hmga/mioDmnK/mnInpmZDlhazlj7gxEjAQBgNVBAMM
CeeOi+e7tOaelzAeFw0xMzEwMTUwMjI2MjZaFw0xNjEwMDQwMjI2MjZaMFUxCzAJ
BgNVBAYTAkNOMQ4wDAYDVQQIDAVBbmh1aTEbMBkGA1UECgwSSW50YSBTb2Z0d2Fy
ZSBMdGQuMRkwFwYDVQQDDBBTb2FwIFNlcnZlciBDZXJ0MIGfMA0GCSqGSIb3DQEB
AQUAA4GNADCBiQKBgQCopgeDNGzwg11xKF4qwKq7Ow42hIk0sQ2FDVrlCkWLGeh3
8arNB5gU+37qCAR7ccqR9sLc+FrlOzY78LOlakDr5egtE1VHrbWRds+H+V+lmwvD
05K5pUNSkRgP16AYRZ0I4dL6GmFswZe0m6kX/u4kLZPl1kkPiuL4LBlzrB1aZQID
AQABo3sweTAJBgNVHRMEAjAAMCwGCWCGSAGG+EIBDQQfFh1PcGVuU1NMIEdlbmVy
YXRlZCBDZXJ0aWZpY2F0ZTAdBgNVHQ4EFgQUGBincEZA6mBaNDa5SuN6ntVomy0w
HwYDVR0jBBgwFoAURMYT7akdeCRHyclwP/Wm//s2KiIwDQYJKoZIhvcNAQEFBQAD
ggEBAGGglUrphVfwElakGwaswE6cmDiofAj3aPtAYS8Y5sNMXAn7ToTzwpxZGyup
l7+GtnpoCCqgL8TWS1Ml5rMFENOWPRcOJwvMrDLPsQTE634uZh3tEkhZcG6gyB7a
cFHLBCAl9Dx+95fos1sjrYr/CT2BtT5KMdDFE7FYC9RDIb/GViEPGnq5Kf+CQ7o3
ZVkZhqTSHTw3OGs6Aww4du0wUT1X/jVYOocQZ09Wm83moBSd1NJXfjIteDZb853c
Fq5qCbbSMEfFh7nJSLasSDG5yzJg7Yud+OjX3t4Mg2bqkuE9DSjDp7homF1kfIg8
YkT3QSmFP1BLcpDXntbCcUdPPjY=
-----END CERTIFICATE-----
