Certificate:
    Data:
        Version: 3 (0x2)
        Serial Number: 20 (0x14)
    Signature Algorithm: sha1WithRSAEncryption
        Issuer: C=CN, ST=\xE5\xAE\x89\xE5\xBE\xBD\xE7\x9C\x81, L=\xE5\x90\x88\xE8\x82\xA5\xE5\xB8\x82, O=\xE5\x90\x88\xE8\x82\xA5\xE8\x8B\xB1\xE5\xA1\x94\xE4\xBF\xA1\xE6\x81\xAF\xE6\x8A\x80\xE6\x9C\xAF\xE6\x9C\x89\xE9\x99\x90\xE5\x85\xAC\xE5\x8F\xB8, CN=\xE7\x8E\x8B\xE7\xBB\xB4\xE6\x9E\x97
        Validity
            Not Before: Oct 12 06:15:41 2013 GMT
            Not After : Oct 12 06:15:41 2018 GMT
        Subject: C=CN, ST=\xE5\xAE\x89\xE5\xBE\xBD\xE7\x9C\x81, O=\xE5\x90\x88\xE8\x82\xA5\xE8\x8B\xB1\xE5\xA1\x94\xE4\xBF\xA1\xE6\x81\xAF\xE6\x8A\x80\xE6\x9C\xAF\xE6\x9C\x89\xE9\x99\x90\xE5\x85\xAC\xE5\x8F\xB8, CN=\xE6\x93\x8D\xE4\xBD\x9C\xE5\x91\x98RA
        Subject Public Key Info:
            Public Key Algorithm: rsaEncryption
                Public-Key: (2048 bit)
                Modulus:
                    00:9d:69:54:ab:50:e6:03:ac:2a:42:e9:c2:6d:fc:
                    f8:28:10:0f:35:2d:d8:21:39:98:4c:72:e8:ff:3a:
                    96:99:43:b3:6e:db:8d:28:8f:20:49:d0:00:75:fc:
                    90:c9:bb:b4:5d:b4:0a:7c:d4:71:b1:91:31:2b:86:
                    4b:ac:e1:8e:28:d0:e4:e7:8a:ea:59:8a:27:7b:05:
                    be:6d:68:b0:f0:f2:d9:29:f3:06:1d:67:83:20:43:
                    3f:f6:b0:79:ce:f4:80:1d:b9:88:e8:c3:c3:bc:89:
                    89:88:b7:b1:ce:d9:ef:f7:f1:59:e9:58:c3:8a:e8:
                    33:1e:61:e5:4e:48:ef:46:d4:e9:83:2c:fe:e6:12:
                    55:84:9d:05:0d:c8:1b:69:61:d0:24:9d:71:6c:d8:
                    23:d7:1c:db:4b:2a:b7:cc:ee:92:ff:98:a8:7a:b1:
                    6b:58:e9:1d:51:50:aa:90:74:c2:0d:b5:13:75:32:
                    bf:e5:b6:7a:71:d2:9e:8e:48:ee:e0:29:5d:7d:ff:
                    96:d9:49:4b:37:0f:66:8f:44:7b:ea:50:c8:3e:9c:
                    7d:94:3b:d1:86:26:3b:2b:d9:f1:2b:e8:fa:1d:49:
                    25:d2:86:64:1b:e1:30:b9:84:5e:48:a8:2e:eb:1f:
                    55:41:d2:1b:d3:30:92:ad:0a:25:13:2d:3d:4d:02:
                    e4:4d
                Exponent: 65537 (0x10001)
        X509v3 extensions:
            X509v3 Basic Constraints: 
                CA:FALSE
            Netscape Comment: 
                OpenSSL Generated Certificate
            X509v3 Subject Key Identifier: 
                3D:16:61:E9:9B:30:71:F8:EA:0D:AB:DD:DF:46:5D:A0:28:7C:4E:B4
            X509v3 Authority Key Identifier: 
                keyid:44:C6:13:ED:A9:1D:78:24:47:C9:C9:70:3F:F5:A6:FF:FB:36:2A:22

    Signature Algorithm: sha1WithRSAEncryption
         42:c5:b2:16:4f:ca:3a:cd:88:72:65:ed:81:e5:31:71:13:a9:
         cb:4a:66:98:9b:ae:20:15:81:55:80:70:22:bc:ec:a3:f8:52:
         1a:8a:cb:3c:59:b4:ae:1e:46:f0:32:6d:c7:cc:1d:d5:38:f1:
         a5:f9:95:ee:34:e2:4f:cc:fd:56:a9:3f:2b:d9:b4:8a:2c:57:
         8e:45:2d:fd:60:05:69:79:13:88:5c:90:f9:ab:ab:38:d5:42:
         aa:7c:51:8b:1f:03:f2:1c:bc:69:84:45:55:7e:88:a4:dd:b6:
         09:8f:99:1a:d4:48:28:be:df:41:be:b0:42:bf:08:d6:9f:5d:
         52:b6:71:31:dd:f1:e2:7c:ec:17:8c:25:d2:c3:6f:1b:8b:42:
         fb:a7:70:be:b6:c6:69:a4:c8:2c:ee:06:ad:07:10:40:27:52:
         c4:2d:63:2c:f7:0c:b6:2d:a8:40:aa:22:10:67:3a:24:60:56:
         02:e3:3b:0c:0b:6b:f3:d8:83:dc:b1:a9:11:21:b6:64:97:1a:
         2e:0b:51:b3:f0:e1:68:4d:17:07:13:52:3c:62:7f:f8:38:df:
         a2:16:9a:a2:2f:ad:3a:98:eb:78:6b:a7:3e:2b:63:21:6a:82:
         bd:af:09:bc:d0:d0:ab:2b:e6:d2:cb:76:35:81:57:05:5e:57:
         8a:90:71:a2
-----BEGIN CERTIFICATE-----
MIID1DCCArygAwIBAgIBFDANBgkqhkiG9w0BAQUFADB4MQswCQYDVQQGEwJDTjES
MBAGA1UECAwJ5a6J5b6955yBMRIwEAYDVQQHDAnlkIjogqXluIIxLTArBgNVBAoM
JOWQiOiCpeiLseWhlOS/oeaBr+aKgOacr+aciemZkOWFrOWPuDESMBAGA1UEAwwJ
546L57u05p6XMB4XDTEzMTAxMjA2MTU0MVoXDTE4MTAxMjA2MTU0MVowZjELMAkG
A1UEBhMCQ04xEjAQBgNVBAgMCeWuieW+veecgTEtMCsGA1UECgwk5ZCI6IKl6Iux
5aGU5L+h5oGv5oqA5pyv5pyJ6ZmQ5YWs5Y+4MRQwEgYDVQQDDAvmk43kvZzlkZhS
QTCCASIwDQYJKoZIhvcNAQEBBQADggEPADCCAQoCggEBAJ1pVKtQ5gOsKkLpwm38
+CgQDzUt2CE5mExy6P86lplDs27bjSiPIEnQAHX8kMm7tF20CnzUcbGRMSuGS6zh
jijQ5OeK6lmKJ3sFvm1osPDy2SnzBh1ngyBDP/awec70gB25iOjDw7yJiYi3sc7Z
7/fxWelYw4roMx5h5U5I70bU6YMs/uYSVYSdBQ3IG2lh0CSdcWzYI9cc20sqt8zu
kv+YqHqxa1jpHVFQqpB0wg21E3Uyv+W2enHSno5I7uApXX3/ltlJSzcPZo9Ee+pQ
yD6cfZQ70YYmOyvZ8Svo+h1JJdKGZBvhMLmEXkioLusfVUHSG9Mwkq0KJRMtPU0C
5E0CAwEAAaN7MHkwCQYDVR0TBAIwADAsBglghkgBhvhCAQ0EHxYdT3BlblNTTCBH
ZW5lcmF0ZWQgQ2VydGlmaWNhdGUwHQYDVR0OBBYEFD0WYembMHH46g2r3d9GXaAo
fE60MB8GA1UdIwQYMBaAFETGE+2pHXgkR8nJcD/1pv/7NioiMA0GCSqGSIb3DQEB
BQUAA4IBAQBCxbIWT8o6zYhyZe2B5TFxE6nLSmaYm64gFYFVgHAivOyj+FIaiss8
WbSuHkbwMm3HzB3VOPGl+ZXuNOJPzP1WqT8r2bSKLFeORS39YAVpeROIXJD5q6s4
1UKqfFGLHwPyHLxphEVVfoik3bYJj5ka1Egovt9BvrBCvwjWn11StnEx3fHifOwX
jCXSw28bi0L7p3C+tsZppMgs7gatBxBAJ1LELWMs9wy2LahAqiIQZzokYFYC4zsM
C2vz2IPcsakRIbZklxouC1Gz8OFoTRcHE1I8Yn/4ON+iFpqiL606mOt4a6c+K2Mh
aoK9rwm80NCrK+bSy3Y1gVcFXleKkHGi
-----END CERTIFICATE-----
